target datalayout = "e-m:e-p270:32:32-p271:32:32-p272:64:64-i64:64-i128:128-f80:128-n8:16:32:64-S128"
target triple = "x86_64-pc-linux-gnu"

; Function Attrs: nounwind uwtable
define dso_local i32 @time_str2mins(ptr noundef %0) #0 {
  %2 = alloca ptr, align 8
  %3 = alloca i32, align 4
  store ptr %0, ptr %2, align 8
  call void @llvm.lifetime.start.p0(i64 4, ptr %3) #7
  %4 = load ptr, ptr %2, align 8
  %5 = call i32 @time_str2secs(ptr noundef %4)
  store i32 %5, ptr %3, align 4
  %6 = load i32, ptr %3, align 4
  %7 = icmp ne i32 %6, -1
  br i1 %7, label %8, label %15

8:                                                ; preds = %1
  %9 = load i32, ptr %3, align 4
  %10 = icmp ne i32 %9, -2
  br i1 %10, label %11, label %15

11:                                               ; preds = %8
  %12 = load i32, ptr %3, align 4
  %13 = add nsw i32 %12, 59
  %14 = sdiv i32 %13, 60
  store i32 %14, ptr %3, align 4
  br label %15

15:                                               ; preds = %11, %8, %1
  %16 = load i32, ptr %3, align 4
  call void @llvm.lifetime.end.p0(i64 4, ptr %3) #7
  ret i32 %16
}