; Function Attrs: nounwind uwtable
define dso_local range(i32 -35791393, 35791395) i32 @time_str2mins(ptr noundef %0) #0 {
  %2 = tail call i32 @time_str2secs(ptr noundef %0)
  %or.cond = icmp ult i32 %2, -2
  br i1 %or.cond, label %3, label %6

3:                                                ; preds = %1
  %4 = add nsw i32 %2, 59
  %5 = sdiv i32 %4, 60
  br label %6

6:                                                ; preds = %3, %1
  %.0 = phi i32 [ %5, %3 ], [ %2, %1 ]
  ret i32 %.0
}